; Function Attrs: nounwind uwtable
define i64 @ZSTD_compressBlock_fast_extDict(ptr noundef readonly captures(none) %0, ptr noundef %1, ptr noundef captures(none) %2, ptr noundef %3, i64 noundef %4) local_unnamed_addr #2 {
switch.lookup:
  %5 = getelementptr inbounds nuw i8, ptr %0, i64 272
  %6 = load i32, ptr %5, align 8, !tbaa !27
  %switch.tableidx = add i32 %6, -5
  %7 = icmp ult i32 %switch.tableidx, 3
  %spec.select = select i1 %7, i32 %6, i32 4
  %8 = tail call fastcc i64 @ZSTD_compressBlock_fast_extDict_generic(ptr noundef nonnull readonly %0, ptr noundef %1, ptr noundef %2, ptr noundef %3, i64 noundef %4, i32 noundef %spec.select)
  ret i64 %8
}